target datalayout = "e-m:e-p270:32:32-p271:32:32-p272:64:64-i64:64-i128:128-f80:128-n8:16:32:64-S128"
target triple = "x86_64-pc-linux-gnu"

@g_v = internal constant [4 x i8] c"\11A\10\01", align 1
@g_v_WXY = internal constant [5 x i8] c"\01\11A\D0\01", align 1

; Function Attrs: nounwind uwtable
define internal i32 @r_shortv(ptr noundef %0) #0 {
  %2 = alloca i32, align 4
  %3 = alloca ptr, align 8
  store ptr %0, ptr %3, align 8
  %4 = load ptr, ptr %3, align 8
  %5 = call i32 @out_grouping_b_U(ptr noundef %4, ptr noundef @g_v_WXY, i32 noundef 89, i32 noundef 121, i32 noundef 0)
  %6 = icmp ne i32 %5, 0
  br i1 %6, label %7, label %8

7:                                                ; preds = %1
  store i32 0, ptr %2, align 4
  br label %19

8:                                                ; preds = %1
  %9 = load ptr, ptr %3, align 8
  %10 = call i32 @in_grouping_b_U(ptr noundef %9, ptr noundef @g_v, i32 noundef 97, i32 noundef 121, i32 noundef 0)
  %11 = icmp ne i32 %10, 0
  br i1 %11, label %12, label %13

12:                                               ; preds = %8
  store i32 0, ptr %2, align 4
  br label %19

13:                                               ; preds = %8
  %14 = load ptr, ptr %3, align 8
  %15 = call i32 @out_grouping_b_U(ptr noundef %14, ptr noundef @g_v, i32 noundef 97, i32 noundef 121, i32 noundef 0)
  %16 = icmp ne i32 %15, 0
  br i1 %16, label %17, label %18

17:                                               ; preds = %13
  store i32 0, ptr %2, align 4
  br label %19

18:                                               ; preds = %13
  store i32 1, ptr %2, align 4
  br label %19

19:                                               ; preds = %18, %17, %12, %7
  %20 = load i32, ptr %2, align 4
  ret i32 %20
}